; Function Attrs: null_pointer_is_valid sspstrong uwtable
define internal void @rtp_prompt(ptr noundef %0, ptr noundef %1) #1 {
  %3 = getelementptr inbounds nuw i8, ptr %0, i64 408
  %4 = load ptr, ptr %3, align 8
  %5 = load i32, ptr @proto_rtp, align 4
  %6 = tail call ptr @p_get_proto_data(ptr noundef %4, ptr noundef %0, i32 noundef %5, i32 noundef 1)
  %7 = ptrtoint ptr %6 to i64
  %8 = trunc i64 %7 to i32
  %9 = icmp ugt i32 %8, 95
  br i1 %9, label %10, label %12

10:                                               ; preds = %2
  %11 = tail call i32 (ptr, i64, i32, i64, ptr, ...) @__snprintf_chk(ptr noundef %1, i64 noundef 200, i32 noundef 2, i64 noundef -1, ptr noundef nonnull @.str.315)
  br label %14

12:                                               ; preds = %2
  %13 = tail call i32 (ptr, i64, i32, i64, ptr, ...) @__snprintf_chk(ptr noundef %1, i64 noundef 200, i32 noundef 2, i64 noundef -1, ptr noundef nonnull @.str.316, i32 noundef %8)
  br label %14

14:                                               ; preds = %12, %10
  ret void
}